; Function Attrs: mustprogress nofree norecurse nosync nounwind willreturn memory(read, inaccessiblemem: none) uwtable
define range(i64 -1, 4294967296) i64 @ssl_get_algorithm2(ptr noundef readonly captures(none) %0) local_unnamed_addr #15 {
  %2 = getelementptr inbounds nuw i8, ptr %0, i64 768
  %3 = load ptr, ptr %2, align 8, !tbaa !121
  %4 = icmp eq ptr %3, null
  br i1 %4, label %25, label %5

5:                                                ; preds = %1
  %6 = getelementptr inbounds nuw i8, ptr %3, i64 64
  %7 = load i32, ptr %6, align 8, !tbaa !223
  %8 = zext i32 %7 to i64
  %9 = getelementptr inbounds nuw i8, ptr %0, i64 24
  %10 = load ptr, ptr %9, align 8, !tbaa !18
  %11 = getelementptr inbounds nuw i8, ptr %10, i64 216
  %12 = load ptr, ptr %11, align 8, !tbaa !134
  %13 = getelementptr inbounds nuw i8, ptr %12, i64 80
  %14 = load i32, ptr %13, align 8, !tbaa !135
  %15 = and i32 %14, 4
  %.not = icmp eq i32 %15, 0
  br i1 %.not, label %18, label %16

16:                                               ; preds = %5
  %17 = icmp eq i32 %7, 2313
  br i1 %17, label %25, label %24

18:                                               ; preds = %5
  %19 = getelementptr inbounds nuw i8, ptr %3, i64 28
  %20 = load i32, ptr %19, align 4, !tbaa !219
  %21 = and i32 %20, 456
  %22 = icmp ne i32 %21, 0
  %23 = icmp eq i32 %7, 1285
  %or.cond = select i1 %22, i1 %23, i1 false
  br i1 %or.cond, label %25, label %24

24:                                               ; preds = %18, %16
  br label %25

25:                                               ; preds = %18, %16, %1, %24
  %.0 = phi i64 [ %8, %24 ], [ -1, %1 ], [ 1028, %16 ], [ 2313, %18 ]
  ret i64 %.0
}